target datalayout = "e-m:e-p270:32:32-p271:32:32-p272:64:64-i64:64-i128:128-f80:128-n8:16:32:64-S128"
target triple = "x86_64-pc-linux-gnu"

@hf_gsm_a_spare_nibble = internal global i32 0, align 4

; Function Attrs: null_pointer_is_valid sspstrong uwtable
define hidden zeroext i16 @de_spare_nibble(ptr noundef %0, ptr noundef %1, ptr noundef %2, i32 noundef %3, i32 noundef %4, ptr noundef %5, i32 noundef %6) #1 {
  %8 = alloca ptr, align 8
  %9 = alloca ptr, align 8
  %10 = alloca ptr, align 8
  %11 = alloca i32, align 4
  %12 = alloca i32, align 4
  %13 = alloca ptr, align 8
  %14 = alloca i32, align 4
  %15 = alloca i32, align 4
  %16 = alloca i32, align 4
  store ptr %0, ptr %8, align 8
  store ptr %1, ptr %9, align 8
  store ptr %2, ptr %10, align 8
  store i32 %3, ptr %11, align 4
  store i32 %4, ptr %12, align 4
  store ptr %5, ptr %13, align 8
  store i32 %6, ptr %14, align 4
  call void @llvm.lifetime.start.p0(i64 4, ptr %15) #9
  call void @llvm.lifetime.start.p0(i64 4, ptr %16) #9
  %17 = load i32, ptr %11, align 4
  store i32 %17, ptr %15, align 4
  %18 = load i32, ptr %12, align 4
  %19 = icmp eq i32 1, %18
  br i1 %19, label %20, label %21

20:                                               ; preds = %7
  store i32 4, ptr %16, align 4
  br label %22

21:                                               ; preds = %7
  store i32 0, ptr %16, align 4
  br label %22

22:                                               ; preds = %21, %20
  %23 = load ptr, ptr %9, align 8
  %24 = load i32, ptr @hf_gsm_a_spare_nibble, align 4
  %25 = load ptr, ptr %8, align 8
  %26 = load i32, ptr %15, align 4
  %27 = shl i32 %26, 3
  %28 = load i32, ptr %16, align 4
  %29 = add i32 %27, %28
  %30 = call ptr @proto_tree_add_bits_item(ptr noundef %23, i32 noundef %24, ptr noundef %25, i32 noundef %29, i32 noundef 4, i32 noundef 0)
  %31 = load i32, ptr %15, align 4
  %32 = add i32 %31, 1
  store i32 %32, ptr %15, align 4
  %33 = load i32, ptr %15, align 4
  %34 = load i32, ptr %11, align 4
  %35 = sub i32 %33, %34
  %36 = trunc i32 %35 to i16
  call void @llvm.lifetime.end.p0(i64 4, ptr %16) #9
  call void @llvm.lifetime.end.p0(i64 4, ptr %15) #9
  ret i16 %36
}