; Function Attrs: null_pointer_is_valid sspstrong uwtable
define hidden noundef zeroext i16 @de_spare_nibble(ptr noundef %0, ptr noundef %1, ptr readnone captures(none) %2, i32 noundef %3, i32 noundef %4, ptr readnone captures(none) %5, i32 %6) #1 {
  %8 = icmp eq i32 %4, 1
  %. = select i1 %8, i32 4, i32 0
  %9 = load i32, ptr @hf_gsm_a_spare_nibble, align 4
  %10 = shl i32 %3, 3
  %11 = or disjoint i32 %., %10
  %12 = tail call ptr @proto_tree_add_bits_item(ptr noundef %1, i32 noundef %9, ptr noundef %0, i32 noundef %11, i32 noundef 4, i32 noundef 0)
  ret i16 1
}